target datalayout = "e-m:e-p270:32:32-p271:32:32-p272:64:64-i64:64-i128:128-f80:128-n8:16:32:64-S128"
target triple = "x86_64-pc-linux-gnu"

@.str.7 = private unnamed_addr constant [5 x i8] c"true\00", align 1
@.str.8 = private unnamed_addr constant [6 x i8] c"false\00", align 1

; Function Attrs: mustprogress uwtable
define linkonce_odr hidden void @_ZN6google8protobuf10TextFormat17BaseTextGenerator12PrintLiteralILm6EEEvRAT__Kc(ptr noundef nonnull align 8 dereferenceable(8) %0, ptr noundef nonnull align 1 dereferenceable(6) %1) #4 comdat align 2 {
  %3 = alloca ptr, align 8
  %4 = alloca ptr, align 8
  store ptr %0, ptr %3, align 8, !tbaa !174
  store ptr %1, ptr %4, align 8, !tbaa !170
  %5 = load ptr, ptr %3, align 8
  %6 = load ptr, ptr %4, align 8, !tbaa !170
  %7 = getelementptr inbounds [6 x i8], ptr %6, i64 0, i64 0
  %8 = load ptr, ptr %5, align 8, !tbaa !130
  %9 = getelementptr inbounds ptr, ptr %8, i64 5
  %10 = load ptr, ptr %9, align 8
  call void %10(ptr noundef nonnull align 8 dereferenceable(8) %5, ptr noundef %7, i64 noundef 5)
  ret void
}

; Function Attrs: mustprogress uwtable
define linkonce_odr hidden void @_ZN6google8protobuf10TextFormat17BaseTextGenerator12PrintLiteralILm5EEEvRAT__Kc(ptr noundef nonnull align 8 dereferenceable(8) %0, ptr noundef nonnull align 1 dereferenceable(5) %1) #4 comdat align 2 {
  %3 = alloca ptr, align 8
  %4 = alloca ptr, align 8
  store ptr %0, ptr %3, align 8, !tbaa !174
  store ptr %1, ptr %4, align 8, !tbaa !170
  %5 = load ptr, ptr %3, align 8
  %6 = load ptr, ptr %4, align 8, !tbaa !170
  %7 = getelementptr inbounds [5 x i8], ptr %6, i64 0, i64 0
  %8 = load ptr, ptr %5, align 8, !tbaa !130
  %9 = getelementptr inbounds ptr, ptr %8, i64 5
  %10 = load ptr, ptr %9, align 8
  call void %10(ptr noundef nonnull align 8 dereferenceable(8) %5, ptr noundef %7, i64 noundef 4)
  ret void
}

; Function Attrs: mustprogress uwtable
define hidden void @_ZNK6google8protobuf10TextFormat21FastFieldValuePrinter9PrintBoolEbPNS1_17BaseTextGeneratorE(ptr noundef nonnull align 8 dereferenceable(8) %0, i1 noundef zeroext %1, ptr noundef %2) unnamed_addr #4 align 2 {
  %4 = alloca ptr, align 8
  %5 = alloca i8, align 1
  %6 = alloca ptr, align 8
  store ptr %0, ptr %4, align 8, !tbaa !180
  %7 = zext i1 %1 to i8
  store i8 %7, ptr %5, align 1, !tbaa !12
  store ptr %2, ptr %6, align 8, !tbaa !174
  %8 = load i8, ptr %5, align 1, !tbaa !12, !range !14, !noundef !15
  %9 = trunc i8 %8 to i1
  br i1 %9, label %10, label %12

10:                                               ; preds = %3
  %11 = load ptr, ptr %6, align 8, !tbaa !174
  call void @_ZN6google8protobuf10TextFormat17BaseTextGenerator12PrintLiteralILm5EEEvRAT__Kc(ptr noundef nonnull align 8 dereferenceable(8) %11, ptr noundef nonnull align 1 dereferenceable(5) @.str.7)
  br label %14

12:                                               ; preds = %3
  %13 = load ptr, ptr %6, align 8, !tbaa !174
  call void @_ZN6google8protobuf10TextFormat17BaseTextGenerator12PrintLiteralILm6EEEvRAT__Kc(ptr noundef nonnull align 8 dereferenceable(8) %13, ptr noundef nonnull align 1 dereferenceable(6) @.str.8)
  br label %14

14:                                               ; preds = %12, %10
  ret void
}