; Function Attrs: mustprogress uwtable
define hidden void @_ZNK6google8protobuf10TextFormat21FastFieldValuePrinter9PrintBoolEbPNS1_17BaseTextGeneratorE(ptr nonnull readnone align 8 captures(none) %0, i1 noundef zeroext %1, ptr noundef %2) unnamed_addr #3 align 2 {
  %4 = load ptr, ptr %2, align 8, !tbaa !24
  %5 = getelementptr inbounds nuw i8, ptr %4, i64 40
  %6 = load ptr, ptr %5, align 8
  br i1 %1, label %7, label %8

7:                                                ; preds = %3
  tail call void %6(ptr noundef nonnull align 8 dereferenceable(8) %2, ptr noundef nonnull @.str.7, i64 noundef 4)
  br label %9

8:                                                ; preds = %3
  tail call void %6(ptr noundef nonnull align 8 dereferenceable(8) %2, ptr noundef nonnull @.str.8, i64 noundef 5)
  br label %9

9:                                                ; preds = %8, %7
  ret void
}